; ModuleID = 'source-C-CXX/47/41.c'
source_filename = "source-C-CXX/47/41.c"
target datalayout = "e-m:e-p270:32:32-p271:32:32-p272:64:64-i64:64-f80:128-n8:16:32:64-S128"
target triple = "x86_64-pc-linux-gnu"

@.str = private unnamed_addr constant [6 x i8] c"%d %d\00", align 1
@.str.1 = private unnamed_addr constant [4 x i8] c"%d \00", align 1
@.str.2 = private unnamed_addr constant [4 x i8] c"%d\0A\00", align 1

; Function Attrs: nofree nounwind sspstrong uwtable
define dso_local i32 @main() local_unnamed_addr #0 {
  %1 = alloca i32, align 4
  %2 = alloca i32, align 4
  %3 = alloca [9 x [9 x i32]], align 16
  %4 = bitcast [9 x [9 x i32]]* %3 to i8*
  %5 = alloca [9 x [9 x i32]], align 16
  %6 = bitcast [9 x [9 x i32]]* %5 to i8*
  %7 = bitcast i32* %1 to i8*
  call void @llvm.lifetime.start.p0i8(i64 4, i8* nonnull %7) #5
  %8 = bitcast i32* %2 to i8*
  call void @llvm.lifetime.start.p0i8(i64 4, i8* nonnull %8) #5
  call void @llvm.lifetime.start.p0i8(i64 324, i8* nonnull %4) #5
  call void @llvm.lifetime.start.p0i8(i64 324, i8* nonnull %6) #5
  %9 = call i32 (i8*, ...) @__isoc99_scanf(i8* getelementptr inbounds ([6 x i8], [6 x i8]* @.str, i64 0, i64 0), i32* nonnull %1, i32* nonnull %2)
  call void @llvm.memset.p0i8.i64(i8* noundef nonnull align 16 dereferenceable(324) %4, i8 0, i64 324, i1 false)
  call void @llvm.memset.p0i8.i64(i8* noundef nonnull align 16 dereferenceable(324) %6, i8 0, i64 324, i1 false)
  %10 = load i32, i32* %1, align 4, !tbaa !5
  %11 = getelementptr inbounds [9 x [9 x i32]], [9 x [9 x i32]]* %3, i64 0, i64 4, i64 4
  store i32 %10, i32* %11, align 16, !tbaa !5
  %12 = getelementptr inbounds [9 x [9 x i32]], [9 x [9 x i32]]* %5, i64 0, i64 4, i64 4
  store i32 %10, i32* %12, align 16, !tbaa !5
  %13 = load i32, i32* %2, align 4, !tbaa !5
  %14 = icmp slt i32 %13, 1
  br i1 %14, label %15, label %16

15:                                               ; preds = %27, %0
  br label %72

16:                                               ; preds = %0
  %17 = add i32 %13, 3
  br label %18

18:                                               ; preds = %16, %27
  %19 = phi i32 [ 4, %16 ], [ %30, %27 ]
  %20 = phi i64 [ 3, %16 ], [ %29, %27 ]
  %21 = phi i32 [ 1, %16 ], [ %28, %27 ]
  %22 = sub nsw i32 4, %21
  %23 = add nuw nsw i32 %21, 2
  %24 = icmp sgt i32 %22, %23
  br i1 %24, label %27, label %25

25:                                               ; preds = %18
  %26 = sext i32 %19 to i64
  br label %32

27:                                               ; preds = %70, %18
  call void @llvm.memcpy.p0i8.p0i8.i64(i8* noundef nonnull align 16 dereferenceable(324) %6, i8* noundef nonnull align 16 dereferenceable(324) %4, i64 324, i1 false)
  %28 = add nuw nsw i32 %21, 1
  %29 = add nsw i64 %20, -1
  %30 = add nuw i32 %19, 1
  %31 = icmp eq i32 %19, %17
  br i1 %31, label %15, label %18, !llvm.loop !9

32:                                               ; preds = %25, %70
  %33 = phi i64 [ %20, %25 ], [ %34, %70 ]
  %34 = add nsw i64 %33, 1
  %35 = add nsw i64 %33, 2
  br label %36

36:                                               ; preds = %32, %36
  %37 = phi i64 [ %20, %32 ], [ %38, %36 ]
  %38 = add nsw i64 %37, 1
  %39 = getelementptr inbounds [9 x [9 x i32]], [9 x [9 x i32]]* %5, i64 0, i64 %34, i64 %38
  %40 = load i32, i32* %39, align 4, !tbaa !5
  %41 = getelementptr inbounds [9 x [9 x i32]], [9 x [9 x i32]]* %3, i64 0, i64 %33, i64 %37
  %42 = load i32, i32* %41, align 4, !tbaa !5
  %43 = add nsw i32 %42, %40
  store i32 %43, i32* %41, align 4, !tbaa !5
  %44 = getelementptr inbounds [9 x [9 x i32]], [9 x [9 x i32]]* %3, i64 0, i64 %33, i64 %38
  %45 = load i32, i32* %44, align 4, !tbaa !5
  %46 = add nsw i32 %45, %40
  store i32 %46, i32* %44, align 4, !tbaa !5
  %47 = add nsw i64 %37, 2
  %48 = getelementptr inbounds [9 x [9 x i32]], [9 x [9 x i32]]* %3, i64 0, i64 %33, i64 %47
  %49 = load i32, i32* %48, align 4, !tbaa !5
  %50 = add nsw i32 %49, %40
  store i32 %50, i32* %48, align 4, !tbaa !5
  %51 = getelementptr inbounds [9 x [9 x i32]], [9 x [9 x i32]]* %3, i64 0, i64 %34, i64 %37
  %52 = load i32, i32* %51, align 4, !tbaa !5
  %53 = add nsw i32 %52, %40
  store i32 %53, i32* %51, align 4, !tbaa !5
  %54 = getelementptr inbounds [9 x [9 x i32]], [9 x [9 x i32]]* %3, i64 0, i64 %34, i64 %38
  %55 = load i32, i32* %54, align 4, !tbaa !5
  %56 = add nsw i32 %55, %40
  store i32 %56, i32* %54, align 4, !tbaa !5
  %57 = getelementptr inbounds [9 x [9 x i32]], [9 x [9 x i32]]* %3, i64 0, i64 %34, i64 %47
  %58 = load i32, i32* %57, align 4, !tbaa !5
  %59 = add nsw i32 %58, %40
  store i32 %59, i32* %57, align 4, !tbaa !5
  %60 = getelementptr inbounds [9 x [9 x i32]], [9 x [9 x i32]]* %3, i64 0, i64 %35, i64 %37
  %61 = load i32, i32* %60, align 4, !tbaa !5
  %62 = add nsw i32 %61, %40
  store i32 %62, i32* %60, align 4, !tbaa !5
  %63 = getelementptr inbounds [9 x [9 x i32]], [9 x [9 x i32]]* %3, i64 0, i64 %35, i64 %38
  %64 = load i32, i32* %63, align 4, !tbaa !5
  %65 = add nsw i32 %64, %40
  store i32 %65, i32* %63, align 4, !tbaa !5
  %66 = getelementptr inbounds [9 x [9 x i32]], [9 x [9 x i32]]* %3, i64 0, i64 %35, i64 %47
  %67 = load i32, i32* %66, align 4, !tbaa !5
  %68 = add nsw i32 %67, %40
  store i32 %68, i32* %66, align 4, !tbaa !5
  %69 = icmp eq i64 %38, %26
  br i1 %69, label %70, label %36, !llvm.loop !11

70:                                               ; preds = %36
  %71 = icmp eq i64 %34, %26
  br i1 %71, label %27, label %32, !llvm.loop !12

72:                                               ; preds = %15, %72
  %73 = phi i64 [ %101, %72 ], [ 0, %15 ]
  %74 = getelementptr inbounds [9 x [9 x i32]], [9 x [9 x i32]]* %5, i64 0, i64 %73, i64 0
  %75 = load i32, i32* %74, align 4, !tbaa !5
  %76 = call i32 (i8*, ...) @printf(i8* nonnull dereferenceable(1) getelementptr inbounds ([4 x i8], [4 x i8]* @.str.1, i64 0, i64 0), i32 %75)
  %77 = getelementptr inbounds [9 x [9 x i32]], [9 x [9 x i32]]* %5, i64 0, i64 %73, i64 1
  %78 = load i32, i32* %77, align 4, !tbaa !5
  %79 = call i32 (i8*, ...) @printf(i8* nonnull dereferenceable(1) getelementptr inbounds ([4 x i8], [4 x i8]* @.str.1, i64 0, i64 0), i32 %78)
  %80 = getelementptr inbounds [9 x [9 x i32]], [9 x [9 x i32]]* %5, i64 0, i64 %73, i64 2
  %81 = load i32, i32* %80, align 4, !tbaa !5
  %82 = call i32 (i8*, ...) @printf(i8* nonnull dereferenceable(1) getelementptr inbounds ([4 x i8], [4 x i8]* @.str.1, i64 0, i64 0), i32 %81)
  %83 = getelementptr inbounds [9 x [9 x i32]], [9 x [9 x i32]]* %5, i64 0, i64 %73, i64 3
  %84 = load i32, i32* %83, align 4, !tbaa !5
  %85 = call i32 (i8*, ...) @printf(i8* nonnull dereferenceable(1) getelementptr inbounds ([4 x i8], [4 x i8]* @.str.1, i64 0, i64 0), i32 %84)
  %86 = getelementptr inbounds [9 x [9 x i32]], [9 x [9 x i32]]* %5, i64 0, i64 %73, i64 4
  %87 = load i32, i32* %86, align 4, !tbaa !5
  %88 = call i32 (i8*, ...) @printf(i8* nonnull dereferenceable(1) getelementptr inbounds ([4 x i8], [4 x i8]* @.str.1, i64 0, i64 0), i32 %87)
  %89 = getelementptr inbounds [9 x [9 x i32]], [9 x [9 x i32]]* %5, i64 0, i64 %73, i64 5
  %90 = load i32, i32* %89, align 4, !tbaa !5
  %91 = call i32 (i8*, ...) @printf(i8* nonnull dereferenceable(1) getelementptr inbounds ([4 x i8], [4 x i8]* @.str.1, i64 0, i64 0), i32 %90)
  %92 = getelementptr inbounds [9 x [9 x i32]], [9 x [9 x i32]]* %5, i64 0, i64 %73, i64 6
  %93 = load i32, i32* %92, align 4, !tbaa !5
  %94 = call i32 (i8*, ...) @printf(i8* nonnull dereferenceable(1) getelementptr inbounds ([4 x i8], [4 x i8]* @.str.1, i64 0, i64 0), i32 %93)
  %95 = getelementptr inbounds [9 x [9 x i32]], [9 x [9 x i32]]* %5, i64 0, i64 %73, i64 7
  %96 = load i32, i32* %95, align 4, !tbaa !5
  %97 = call i32 (i8*, ...) @printf(i8* nonnull dereferenceable(1) getelementptr inbounds ([4 x i8], [4 x i8]* @.str.1, i64 0, i64 0), i32 %96)
  %98 = getelementptr inbounds [9 x [9 x i32]], [9 x [9 x i32]]* %5, i64 0, i64 %73, i64 8
  %99 = load i32, i32* %98, align 4, !tbaa !5
  %100 = call i32 (i8*, ...) @printf(i8* nonnull dereferenceable(1) getelementptr inbounds ([4 x i8], [4 x i8]* @.str.2, i64 0, i64 0), i32 %99)
  %101 = add nuw nsw i64 %73, 1
  %102 = icmp eq i64 %101, 9
  br i1 %102, label %103, label %72, !llvm.loop !13

103:                                              ; preds = %72
  call void @llvm.lifetime.end.p0i8(i64 324, i8* nonnull %6) #5
  call void @llvm.lifetime.end.p0i8(i64 324, i8* nonnull %4) #5
  call void @llvm.lifetime.end.p0i8(i64 4, i8* nonnull %8) #5
  call void @llvm.lifetime.end.p0i8(i64 4, i8* nonnull %7) #5
  ret i32 0
}

; Function Attrs: argmemonly mustprogress nofree nosync nounwind willreturn
declare void @llvm.lifetime.start.p0i8(i64 immarg, i8* nocapture) #1

; Function Attrs: nofree nounwind
declare noundef i32 @__isoc99_scanf(i8* nocapture noundef readonly, ...) local_unnamed_addr #2

; Function Attrs: nofree nounwind
declare noundef i32 @printf(i8* nocapture noundef readonly, ...) local_unnamed_addr #2

; Function Attrs: argmemonly mustprogress nofree nosync nounwind willreturn
declare void @llvm.lifetime.end.p0i8(i64 immarg, i8* nocapture) #1

; Function Attrs: argmemonly nofree nounwind willreturn writeonly
declare void @llvm.memset.p0i8.i64(i8* nocapture writeonly, i8, i64, i1 immarg) #3

; Function Attrs: argmemonly nofree nounwind willreturn
declare void @llvm.memcpy.p0i8.p0i8.i64(i8* noalias nocapture writeonly, i8* noalias nocapture readonly, i64, i1 immarg) #4


!llvm.module.flags = !{!0, !1, !2, !3}
!llvm.ident = !{!4}

!0 = !{i32 1, !"wchar_size", i32 4}
!1 = !{i32 7, !"PIC Level", i32 2}
!2 = !{i32 7, !"PIE Level", i32 2}
!3 = !{i32 7, !"uwtable", i32 1}
!4 = !{!"clang version 13.0.0"}
!5 = !{!6, !6, i64 0}
!6 = !{!"int", !7, i64 0}
!7 = !{!"omnipotent char", !8, i64 0}
!8 = !{!"Simple C/C++ TBAA"}
!9 = distinct !{!9, !10}
!10 = !{!"llvm.loop.mustprogress"}
!11 = distinct !{!11, !10}
!12 = distinct !{!12, !10}
!13 = distinct !{!13, !10}
